; Function Attrs: mustprogress uwtable
define void @_Z10addResiduePSt13unordered_mapINSt7__cxx1112basic_stringIcSt11char_traitsIcESaIcEEES5_St4hashIS5_EN3gmx20EqualCaseInsensitiveESaISt4pairIKS5_S5_EEERSB_SG_(ptr noundef %0, ptr noundef nonnull align 8 dereferenceable(32) %1, ptr noundef nonnull align 8 dereferenceable(32) %2) local_unnamed_addr #10 personality ptr @__gxx_personality_v0 {
  %4 = alloca %"struct.std::pair.5", align 8
  call void @llvm.lifetime.start.p0(i64 64, ptr nonnull %4) #18
  call void @_ZNSt4pairIKNSt7__cxx1112basic_stringIcSt11char_traitsIcESaIcEEES5_EC2IS6_S5_TnNSt9enable_ifIXaaclsr5_PCCPE18_ConstructiblePairIT_T0_EEclsr5_PCCPE26_ImplicitlyConvertiblePairISA_SB_EEEbE4typeELb1EEERS6_SE_(ptr noundef nonnull align 8 dereferenceable(64) %4, ptr noundef nonnull align 8 dereferenceable(32) %1, ptr noundef nonnull align 8 dereferenceable(32) %2)
  %5 = invoke { ptr, i8 } @_ZNSt10_HashtableINSt7__cxx1112basic_stringIcSt11char_traitsIcESaIcEEESt4pairIKS5_S5_ESaIS8_ENSt8__detail10_Select1stEN3gmx20EqualCaseInsensitiveESt4hashIS5_ENSA_18_Mod_range_hashingENSA_20_Default_ranged_hashENSA_20_Prime_rehash_policyENSA_17_Hashtable_traitsILb1ELb0ELb1EEEE10_M_emplaceIJS8_EEES6_INSA_14_Node_iteratorIS8_Lb0ELb1EEEbESt17integral_constantIbLb1EEDpOT_(ptr noundef nonnull align 8 dereferenceable(56) %0, ptr noundef nonnull align 8 dereferenceable(64) %4)
          to label %_ZNSt13unordered_mapINSt7__cxx1112basic_stringIcSt11char_traitsIcESaIcEEES5_St4hashIS5_EN3gmx20EqualCaseInsensitiveESaISt4pairIKS5_S5_EEE6insertEOSC_.exit unwind label %33

_ZNSt13unordered_mapINSt7__cxx1112basic_stringIcSt11char_traitsIcESaIcEEES5_St4hashIS5_EN3gmx20EqualCaseInsensitiveESaISt4pairIKS5_S5_EEE6insertEOSC_.exit: ; preds = %3
  %.fca.0.extract = extractvalue { ptr, i8 } %5, 0
  %.fca.1.extract = extractvalue { ptr, i8 } %5, 1
  %6 = getelementptr inbounds nuw i8, ptr %4, i64 32
  %7 = load ptr, ptr %6, align 8, !tbaa !4
  %8 = getelementptr inbounds nuw i8, ptr %4, i64 48
  %9 = icmp eq ptr %7, %8
  br i1 %9, label %_ZNKSt7__cxx1112basic_stringIcSt11char_traitsIcESaIcEE11_M_is_localEv.exit.thread.i.i.i, label %_ZNKSt7__cxx1112basic_stringIcSt11char_traitsIcESaIcEE11_M_is_localEv.exit.i.i.i

_ZNKSt7__cxx1112basic_stringIcSt11char_traitsIcESaIcEE11_M_is_localEv.exit.thread.i.i.i: ; preds = %_ZNSt13unordered_mapINSt7__cxx1112basic_stringIcSt11char_traitsIcESaIcEEES5_St4hashIS5_EN3gmx20EqualCaseInsensitiveESaISt4pairIKS5_S5_EEE6insertEOSC_.exit
  %10 = getelementptr inbounds nuw i8, ptr %4, i64 40
  %11 = load i64, ptr %10, align 8, !tbaa !12
  %12 = icmp ult i64 %11, 16
  call void @llvm.assume(i1 %12)
  br label %_ZNSt7__cxx1112basic_stringIcSt11char_traitsIcESaIcEED2Ev.exit.i

_ZNKSt7__cxx1112basic_stringIcSt11char_traitsIcESaIcEE11_M_is_localEv.exit.i.i.i: ; preds = %_ZNSt13unordered_mapINSt7__cxx1112basic_stringIcSt11char_traitsIcESaIcEEES5_St4hashIS5_EN3gmx20EqualCaseInsensitiveESaISt4pairIKS5_S5_EEE6insertEOSC_.exit
  %13 = load i64, ptr %8, align 8, !tbaa !13
  %14 = add i64 %13, 1
  call void @_ZdlPvm(ptr noundef %7, i64 noundef %14) #20
  br label %_ZNSt7__cxx1112basic_stringIcSt11char_traitsIcESaIcEED2Ev.exit.i

_ZNSt7__cxx1112basic_stringIcSt11char_traitsIcESaIcEED2Ev.exit.i: ; preds = %_ZNKSt7__cxx1112basic_stringIcSt11char_traitsIcESaIcEE11_M_is_localEv.exit.i.i.i, %_ZNKSt7__cxx1112basic_stringIcSt11char_traitsIcESaIcEE11_M_is_localEv.exit.thread.i.i.i
  %15 = load ptr, ptr %4, align 8, !tbaa !4
  %16 = getelementptr inbounds nuw i8, ptr %4, i64 16
  %17 = icmp eq ptr %15, %16
  br i1 %17, label %_ZNKSt7__cxx1112basic_stringIcSt11char_traitsIcESaIcEE11_M_is_localEv.exit.thread.i.i2.i, label %_ZNKSt7__cxx1112basic_stringIcSt11char_traitsIcESaIcEE11_M_is_localEv.exit.i.i1.i

_ZNKSt7__cxx1112basic_stringIcSt11char_traitsIcESaIcEE11_M_is_localEv.exit.thread.i.i2.i: ; preds = %_ZNSt7__cxx1112basic_stringIcSt11char_traitsIcESaIcEED2Ev.exit.i
  %18 = getelementptr inbounds nuw i8, ptr %4, i64 8
  %19 = load i64, ptr %18, align 8, !tbaa !12
  %20 = icmp ult i64 %19, 16
  call void @llvm.assume(i1 %20)
  br label %_ZNSt4pairIKNSt7__cxx1112basic_stringIcSt11char_traitsIcESaIcEEES5_ED2Ev.exit

_ZNKSt7__cxx1112basic_stringIcSt11char_traitsIcESaIcEE11_M_is_localEv.exit.i.i1.i: ; preds = %_ZNSt7__cxx1112basic_stringIcSt11char_traitsIcESaIcEED2Ev.exit.i
  %21 = load i64, ptr %16, align 8, !tbaa !13
  %22 = add i64 %21, 1
  call void @_ZdlPvm(ptr noundef %15, i64 noundef %22) #20
  br label %_ZNSt4pairIKNSt7__cxx1112basic_stringIcSt11char_traitsIcESaIcEEES5_ED2Ev.exit

_ZNSt4pairIKNSt7__cxx1112basic_stringIcSt11char_traitsIcESaIcEEES5_ED2Ev.exit: ; preds = %_ZNKSt7__cxx1112basic_stringIcSt11char_traitsIcESaIcEE11_M_is_localEv.exit.thread.i.i2.i, %_ZNKSt7__cxx1112basic_stringIcSt11char_traitsIcESaIcEE11_M_is_localEv.exit.i.i1.i
  call void @llvm.lifetime.end.p0(i64 64, ptr nonnull %4) #18
  %23 = trunc nuw i8 %.fca.1.extract to i1
  br i1 %23, label %35, label %24

24:                                               ; preds = %_ZNSt4pairIKNSt7__cxx1112basic_stringIcSt11char_traitsIcESaIcEEES5_ED2Ev.exit
  %25 = getelementptr inbounds nuw i8, ptr %.fca.0.extract, i64 40
  %26 = call noundef zeroext i1 @_ZN3gmx20equalCaseInsensitiveERKNSt7__cxx1112basic_stringIcSt11char_traitsIcESaIcEEES7_(ptr noundef nonnull align 8 dereferenceable(32) %25, ptr noundef nonnull align 8 dereferenceable(32) %2)
  br i1 %26, label %35, label %27

27:                                               ; preds = %24
  %28 = load ptr, ptr @stderr, align 8, !tbaa !14
  %29 = load ptr, ptr %1, align 8, !tbaa !4
  %30 = load ptr, ptr %25, align 8, !tbaa !4
  %31 = load ptr, ptr %2, align 8, !tbaa !4
  %32 = call i32 (ptr, ptr, ...) @fprintf(ptr noundef %28, ptr noundef nonnull @.str.2, ptr noundef %29, ptr noundef %30, ptr noundef %31) #21
  br label %35

33:                                               ; preds = %3
  %34 = landingpad { ptr, i32 }
          cleanup
  call void @_ZNSt4pairIKNSt7__cxx1112basic_stringIcSt11char_traitsIcESaIcEEES5_ED2Ev(ptr noundef nonnull align 8 dereferenceable(64) %4) #18
  call void @llvm.lifetime.end.p0(i64 64, ptr nonnull %4) #18
  resume { ptr, i32 } %34

35:                                               ; preds = %24, %27, %_ZNSt4pairIKNSt7__cxx1112basic_stringIcSt11char_traitsIcESaIcEEES5_ED2Ev.exit
  ret void
}